target datalayout = "e-m:e-p270:32:32-p271:32:32-p272:64:64-i64:64-i128:128-f80:128-n8:16:32:64-S128"
target triple = "x86_64-pc-linux-gnu"

%struct._object = type { %union.anon, ptr }
%union.anon = type { i64 }
%struct._typeobject = type { %struct.PyVarObject, ptr, i64, i64, ptr, i64, ptr, ptr, ptr, ptr, ptr, ptr, ptr, ptr, ptr, ptr, ptr, ptr, ptr, i64, ptr, ptr, ptr, ptr, i64, ptr, ptr, ptr, ptr, ptr, ptr, ptr, ptr, ptr, i64, ptr, ptr, ptr, ptr, ptr, ptr, ptr, ptr, ptr, ptr, ptr, i32, ptr, ptr, i8, i16 }
%struct.PyVarObject = type { %struct._object, i64 }

@.str.1 = private unnamed_addr constant [10 x i8] c"fork_exec\00", align 1
@.str.3 = private unnamed_addr constant [11 x i8] c"argument 4\00", align 1
@.str.4 = private unnamed_addr constant [6 x i8] c"tuple\00", align 1

; Function Attrs: inlinehint nounwind uwtable
define internal i32 @PyType_HasFeature(ptr noundef %0, i64 noundef %1) #3 {
  %3 = alloca ptr, align 8
  %4 = alloca i64, align 8
  %5 = alloca i64, align 8
  store ptr %0, ptr %3, align 8, !tbaa !14
  store i64 %1, ptr %4, align 8, !tbaa !10
  call void @llvm.lifetime.start.p0(i64 8, ptr %5) #13
  %6 = load ptr, ptr %3, align 8, !tbaa !14
  %7 = getelementptr inbounds nuw %struct._typeobject, ptr %6, i32 0, i32 19
  %8 = load i64, ptr %7, align 8, !tbaa !16
  store i64 %8, ptr %5, align 8, !tbaa !10
  %9 = load i64, ptr %5, align 8, !tbaa !10
  %10 = load i64, ptr %4, align 8, !tbaa !10
  %11 = and i64 %9, %10
  %12 = icmp ne i64 %11, 0
  %13 = zext i1 %12 to i32
  call void @llvm.lifetime.end.p0(i64 8, ptr %5) #13
  ret i32 %13
}

; Function Attrs: inlinehint nounwind uwtable
define internal ptr @_Py_TYPE(ptr noundef %0) #3 {
  %2 = alloca ptr, align 8
  store ptr %0, ptr %2, align 8, !tbaa !3
  %3 = load ptr, ptr %2, align 8, !tbaa !3
  %4 = getelementptr inbounds nuw %struct._object, ptr %3, i32 0, i32 1
  %5 = load ptr, ptr %4, align 8, !tbaa !25
  ret ptr %5
}

; Function Attrs: nounwind uwtable
define internal ptr @subprocess_fork_exec(ptr noundef %0, ptr noundef %1, i64 noundef %2) #0 {
  %4 = alloca ptr, align 8
  %5 = alloca ptr, align 8
  %6 = alloca i64, align 8
  %7 = alloca ptr, align 8
  %8 = alloca ptr, align 8
  %9 = alloca ptr, align 8
  %10 = alloca i32, align 4
  %11 = alloca ptr, align 8
  %12 = alloca ptr, align 8
  %13 = alloca ptr, align 8
  %14 = alloca i32, align 4
  %15 = alloca i32, align 4
  %16 = alloca i32, align 4
  %17 = alloca i32, align 4
  %18 = alloca i32, align 4
  %19 = alloca i32, align 4
  %20 = alloca i32, align 4
  %21 = alloca i32, align 4
  %22 = alloca i32, align 4
  %23 = alloca i32, align 4
  %24 = alloca i32, align 4
  %25 = alloca ptr, align 8
  %26 = alloca ptr, align 8
  %27 = alloca ptr, align 8
  %28 = alloca i32, align 4
  %29 = alloca ptr, align 8
  store ptr %0, ptr %4, align 8, !tbaa !3
  store ptr %1, ptr %5, align 8, !tbaa !8
  store i64 %2, ptr %6, align 8, !tbaa !10
  call void @llvm.lifetime.start.p0(i64 8, ptr %7) #13
  store ptr null, ptr %7, align 8, !tbaa !3
  call void @llvm.lifetime.start.p0(i64 8, ptr %8) #13
  call void @llvm.lifetime.start.p0(i64 8, ptr %9) #13
  call void @llvm.lifetime.start.p0(i64 4, ptr %10) #13
  call void @llvm.lifetime.start.p0(i64 8, ptr %11) #13
  call void @llvm.lifetime.start.p0(i64 8, ptr %12) #13
  call void @llvm.lifetime.start.p0(i64 8, ptr %13) #13
  call void @llvm.lifetime.start.p0(i64 4, ptr %14) #13
  call void @llvm.lifetime.start.p0(i64 4, ptr %15) #13
  call void @llvm.lifetime.start.p0(i64 4, ptr %16) #13
  call void @llvm.lifetime.start.p0(i64 4, ptr %17) #13
  call void @llvm.lifetime.start.p0(i64 4, ptr %18) #13
  call void @llvm.lifetime.start.p0(i64 4, ptr %19) #13
  call void @llvm.lifetime.start.p0(i64 4, ptr %20) #13
  call void @llvm.lifetime.start.p0(i64 4, ptr %21) #13
  call void @llvm.lifetime.start.p0(i64 4, ptr %22) #13
  call void @llvm.lifetime.start.p0(i64 4, ptr %23) #13
  call void @llvm.lifetime.start.p0(i64 4, ptr %24) #13
  call void @llvm.lifetime.start.p0(i64 8, ptr %25) #13
  call void @llvm.lifetime.start.p0(i64 8, ptr %26) #13
  call void @llvm.lifetime.start.p0(i64 8, ptr %27) #13
  call void @llvm.lifetime.start.p0(i64 4, ptr %28) #13
  call void @llvm.lifetime.start.p0(i64 8, ptr %29) #13
  %30 = load i64, ptr %6, align 8, !tbaa !10
  %31 = icmp sle i64 22, %30
  br i1 %31, label %32, label %35

32:                                               ; preds = %3
  %33 = load i64, ptr %6, align 8, !tbaa !10
  %34 = icmp sle i64 %33, 22
  br i1 %34, label %40, label %35

35:                                               ; preds = %32, %3
  %36 = load i64, ptr %6, align 8, !tbaa !10
  %37 = call i32 @_PyArg_CheckPositional(ptr noundef @.str.1, i64 noundef %36, i64 noundef 22, i64 noundef 22)
  %38 = icmp ne i32 %37, 0
  br i1 %38, label %40, label %39

39:                                               ; preds = %35
  br label %237

40:                                               ; preds = %35, %32
  %41 = load ptr, ptr %5, align 8, !tbaa !8
  %42 = getelementptr ptr, ptr %41, i64 0
  %43 = load ptr, ptr %42, align 8, !tbaa !3
  store ptr %43, ptr %8, align 8, !tbaa !3
  %44 = load ptr, ptr %5, align 8, !tbaa !8
  %45 = getelementptr ptr, ptr %44, i64 1
  %46 = load ptr, ptr %45, align 8, !tbaa !3
  store ptr %46, ptr %9, align 8, !tbaa !3
  %47 = load ptr, ptr %5, align 8, !tbaa !8
  %48 = getelementptr ptr, ptr %47, i64 2
  %49 = load ptr, ptr %48, align 8, !tbaa !3
  %50 = call i32 @PyObject_IsTrue(ptr noundef %49)
  store i32 %50, ptr %10, align 4, !tbaa !12
  %51 = load i32, ptr %10, align 4, !tbaa !12
  %52 = icmp slt i32 %51, 0
  br i1 %52, label %53, label %54

53:                                               ; preds = %40
  br label %237

54:                                               ; preds = %40
  %55 = load ptr, ptr %5, align 8, !tbaa !8
  %56 = getelementptr ptr, ptr %55, i64 3
  %57 = load ptr, ptr %56, align 8, !tbaa !3
  %58 = call ptr @_Py_TYPE(ptr noundef %57)
  %59 = call i32 @PyType_HasFeature(ptr noundef %58, i64 noundef 67108864)
  %60 = icmp ne i32 %59, 0
  br i1 %60, label %65, label %61

61:                                               ; preds = %54
  %62 = load ptr, ptr %5, align 8, !tbaa !8
  %63 = getelementptr ptr, ptr %62, i64 3
  %64 = load ptr, ptr %63, align 8, !tbaa !3
  call void @_PyArg_BadArgument(ptr noundef @.str.1, ptr noundef @.str.3, ptr noundef @.str.4, ptr noundef %64)
  br label %237

65:                                               ; preds = %54
  %66 = load ptr, ptr %5, align 8, !tbaa !8
  %67 = getelementptr ptr, ptr %66, i64 3
  %68 = load ptr, ptr %67, align 8, !tbaa !3
  store ptr %68, ptr %11, align 8, !tbaa !3
  %69 = load ptr, ptr %5, align 8, !tbaa !8
  %70 = getelementptr ptr, ptr %69, i64 4
  %71 = load ptr, ptr %70, align 8, !tbaa !3
  store ptr %71, ptr %12, align 8, !tbaa !3
  %72 = load ptr, ptr %5, align 8, !tbaa !8
  %73 = getelementptr ptr, ptr %72, i64 5
  %74 = load ptr, ptr %73, align 8, !tbaa !3
  store ptr %74, ptr %13, align 8, !tbaa !3
  %75 = load ptr, ptr %5, align 8, !tbaa !8
  %76 = getelementptr ptr, ptr %75, i64 6
  %77 = load ptr, ptr %76, align 8, !tbaa !3
  %78 = call i32 @PyLong_AsInt(ptr noundef %77)
  store i32 %78, ptr %14, align 4, !tbaa !12
  %79 = load i32, ptr %14, align 4, !tbaa !12
  %80 = icmp eq i32 %79, -1
  br i1 %80, label %81, label %85

81:                                               ; preds = %65
  %82 = call ptr @PyErr_Occurred()
  %83 = icmp ne ptr %82, null
  br i1 %83, label %84, label %85

84:                                               ; preds = %81
  br label %237

85:                                               ; preds = %81, %65
  %86 = load ptr, ptr %5, align 8, !tbaa !8
  %87 = getelementptr ptr, ptr %86, i64 7
  %88 = load ptr, ptr %87, align 8, !tbaa !3
  %89 = call i32 @PyLong_AsInt(ptr noundef %88)
  store i32 %89, ptr %15, align 4, !tbaa !12
  %90 = load i32, ptr %15, align 4, !tbaa !12
  %91 = icmp eq i32 %90, -1
  br i1 %91, label %92, label %96

92:                                               ; preds = %85
  %93 = call ptr @PyErr_Occurred()
  %94 = icmp ne ptr %93, null
  br i1 %94, label %95, label %96

95:                                               ; preds = %92
  br label %237

96:                                               ; preds = %92, %85
  %97 = load ptr, ptr %5, align 8, !tbaa !8
  %98 = getelementptr ptr, ptr %97, i64 8
  %99 = load ptr, ptr %98, align 8, !tbaa !3
  %100 = call i32 @PyLong_AsInt(ptr noundef %99)
  store i32 %100, ptr %16, align 4, !tbaa !12
  %101 = load i32, ptr %16, align 4, !tbaa !12
  %102 = icmp eq i32 %101, -1
  br i1 %102, label %103, label %107

103:                                              ; preds = %96
  %104 = call ptr @PyErr_Occurred()
  %105 = icmp ne ptr %104, null
  br i1 %105, label %106, label %107

106:                                              ; preds = %103
  br label %237

107:                                              ; preds = %103, %96
  %108 = load ptr, ptr %5, align 8, !tbaa !8
  %109 = getelementptr ptr, ptr %108, i64 9
  %110 = load ptr, ptr %109, align 8, !tbaa !3
  %111 = call i32 @PyLong_AsInt(ptr noundef %110)
  store i32 %111, ptr %17, align 4, !tbaa !12
  %112 = load i32, ptr %17, align 4, !tbaa !12
  %113 = icmp eq i32 %112, -1
  br i1 %113, label %114, label %118

114:                                              ; preds = %107
  %115 = call ptr @PyErr_Occurred()
  %116 = icmp ne ptr %115, null
  br i1 %116, label %117, label %118

117:                                              ; preds = %114
  br label %237

118:                                              ; preds = %114, %107
  %119 = load ptr, ptr %5, align 8, !tbaa !8
  %120 = getelementptr ptr, ptr %119, i64 10
  %121 = load ptr, ptr %120, align 8, !tbaa !3
  %122 = call i32 @PyLong_AsInt(ptr noundef %121)
  store i32 %122, ptr %18, align 4, !tbaa !12
  %123 = load i32, ptr %18, align 4, !tbaa !12
  %124 = icmp eq i32 %123, -1
  br i1 %124, label %125, label %129

125:                                              ; preds = %118
  %126 = call ptr @PyErr_Occurred()
  %127 = icmp ne ptr %126, null
  br i1 %127, label %128, label %129

128:                                              ; preds = %125
  br label %237

129:                                              ; preds = %125, %118
  %130 = load ptr, ptr %5, align 8, !tbaa !8
  %131 = getelementptr ptr, ptr %130, i64 11
  %132 = load ptr, ptr %131, align 8, !tbaa !3
  %133 = call i32 @PyLong_AsInt(ptr noundef %132)
  store i32 %133, ptr %19, align 4, !tbaa !12
  %134 = load i32, ptr %19, align 4, !tbaa !12
  %135 = icmp eq i32 %134, -1
  br i1 %135, label %136, label %140

136:                                              ; preds = %129
  %137 = call ptr @PyErr_Occurred()
  %138 = icmp ne ptr %137, null
  br i1 %138, label %139, label %140

139:                                              ; preds = %136
  br label %237

140:                                              ; preds = %136, %129
  %141 = load ptr, ptr %5, align 8, !tbaa !8
  %142 = getelementptr ptr, ptr %141, i64 12
  %143 = load ptr, ptr %142, align 8, !tbaa !3
  %144 = call i32 @PyLong_AsInt(ptr noundef %143)
  store i32 %144, ptr %20, align 4, !tbaa !12
  %145 = load i32, ptr %20, align 4, !tbaa !12
  %146 = icmp eq i32 %145, -1
  br i1 %146, label %147, label %151

147:                                              ; preds = %140
  %148 = call ptr @PyErr_Occurred()
  %149 = icmp ne ptr %148, null
  br i1 %149, label %150, label %151

150:                                              ; preds = %147
  br label %237

151:                                              ; preds = %147, %140
  %152 = load ptr, ptr %5, align 8, !tbaa !8
  %153 = getelementptr ptr, ptr %152, i64 13
  %154 = load ptr, ptr %153, align 8, !tbaa !3
  %155 = call i32 @PyLong_AsInt(ptr noundef %154)
  store i32 %155, ptr %21, align 4, !tbaa !12
  %156 = load i32, ptr %21, align 4, !tbaa !12
  %157 = icmp eq i32 %156, -1
  br i1 %157, label %158, label %162

158:                                              ; preds = %151
  %159 = call ptr @PyErr_Occurred()
  %160 = icmp ne ptr %159, null
  br i1 %160, label %161, label %162

161:                                              ; preds = %158
  br label %237

162:                                              ; preds = %158, %151
  %163 = load ptr, ptr %5, align 8, !tbaa !8
  %164 = getelementptr ptr, ptr %163, i64 14
  %165 = load ptr, ptr %164, align 8, !tbaa !3
  %166 = call i32 @PyObject_IsTrue(ptr noundef %165)
  store i32 %166, ptr %22, align 4, !tbaa !12
  %167 = load i32, ptr %22, align 4, !tbaa !12
  %168 = icmp slt i32 %167, 0
  br i1 %168, label %169, label %170

169:                                              ; preds = %162
  br label %237

170:                                              ; preds = %162
  %171 = load ptr, ptr %5, align 8, !tbaa !8
  %172 = getelementptr ptr, ptr %171, i64 15
  %173 = load ptr, ptr %172, align 8, !tbaa !3
  %174 = call i32 @PyObject_IsTrue(ptr noundef %173)
  store i32 %174, ptr %23, align 4, !tbaa !12
  %175 = load i32, ptr %23, align 4, !tbaa !12
  %176 = icmp slt i32 %175, 0
  br i1 %176, label %177, label %178

177:                                              ; preds = %170
  br label %237

178:                                              ; preds = %170
  %179 = load ptr, ptr %5, align 8, !tbaa !8
  %180 = getelementptr ptr, ptr %179, i64 16
  %181 = load ptr, ptr %180, align 8, !tbaa !3
  %182 = call i32 @PyLong_AsInt(ptr noundef %181)
  store i32 %182, ptr %24, align 4, !tbaa !12
  %183 = load i32, ptr %24, align 4, !tbaa !12
  %184 = icmp eq i32 %183, -1
  br i1 %184, label %185, label %189

185:                                              ; preds = %178
  %186 = call ptr @PyErr_Occurred()
  %187 = icmp ne ptr %186, null
  br i1 %187, label %188, label %189

188:                                              ; preds = %185
  br label %237

189:                                              ; preds = %185, %178
  %190 = load ptr, ptr %5, align 8, !tbaa !8
  %191 = getelementptr ptr, ptr %190, i64 17
  %192 = load ptr, ptr %191, align 8, !tbaa !3
  store ptr %192, ptr %25, align 8, !tbaa !3
  %193 = load ptr, ptr %5, align 8, !tbaa !8
  %194 = getelementptr ptr, ptr %193, i64 18
  %195 = load ptr, ptr %194, align 8, !tbaa !3
  store ptr %195, ptr %26, align 8, !tbaa !3
  %196 = load ptr, ptr %5, align 8, !tbaa !8
  %197 = getelementptr ptr, ptr %196, i64 19
  %198 = load ptr, ptr %197, align 8, !tbaa !3
  store ptr %198, ptr %27, align 8, !tbaa !3
  %199 = load ptr, ptr %5, align 8, !tbaa !8
  %200 = getelementptr ptr, ptr %199, i64 20
  %201 = load ptr, ptr %200, align 8, !tbaa !3
  %202 = call i32 @PyLong_AsInt(ptr noundef %201)
  store i32 %202, ptr %28, align 4, !tbaa !12
  %203 = load i32, ptr %28, align 4, !tbaa !12
  %204 = icmp eq i32 %203, -1
  br i1 %204, label %205, label %209

205:                                              ; preds = %189
  %206 = call ptr @PyErr_Occurred()
  %207 = icmp ne ptr %206, null
  br i1 %207, label %208, label %209

208:                                              ; preds = %205
  br label %237

209:                                              ; preds = %205, %189
  %210 = load ptr, ptr %5, align 8, !tbaa !8
  %211 = getelementptr ptr, ptr %210, i64 21
  %212 = load ptr, ptr %211, align 8, !tbaa !3
  store ptr %212, ptr %29, align 8, !tbaa !3
  %213 = load ptr, ptr %4, align 8, !tbaa !3
  %214 = load ptr, ptr %8, align 8, !tbaa !3
  %215 = load ptr, ptr %9, align 8, !tbaa !3
  %216 = load i32, ptr %10, align 4, !tbaa !12
  %217 = load ptr, ptr %11, align 8, !tbaa !3
  %218 = load ptr, ptr %12, align 8, !tbaa !3
  %219 = load ptr, ptr %13, align 8, !tbaa !3
  %220 = load i32, ptr %14, align 4, !tbaa !12
  %221 = load i32, ptr %15, align 4, !tbaa !12
  %222 = load i32, ptr %16, align 4, !tbaa !12
  %223 = load i32, ptr %17, align 4, !tbaa !12
  %224 = load i32, ptr %18, align 4, !tbaa !12
  %225 = load i32, ptr %19, align 4, !tbaa !12
  %226 = load i32, ptr %20, align 4, !tbaa !12
  %227 = load i32, ptr %21, align 4, !tbaa !12
  %228 = load i32, ptr %22, align 4, !tbaa !12
  %229 = load i32, ptr %23, align 4, !tbaa !12
  %230 = load i32, ptr %24, align 4, !tbaa !12
  %231 = load ptr, ptr %25, align 8, !tbaa !3
  %232 = load ptr, ptr %26, align 8, !tbaa !3
  %233 = load ptr, ptr %27, align 8, !tbaa !3
  %234 = load i32, ptr %28, align 4, !tbaa !12
  %235 = load ptr, ptr %29, align 8, !tbaa !3
  %236 = call ptr @subprocess_fork_exec_impl(ptr noundef %213, ptr noundef %214, ptr noundef %215, i32 noundef %216, ptr noundef %217, ptr noundef %218, ptr noundef %219, i32 noundef %220, i32 noundef %221, i32 noundef %222, i32 noundef %223, i32 noundef %224, i32 noundef %225, i32 noundef %226, i32 noundef %227, i32 noundef %228, i32 noundef %229, i32 noundef %230, ptr noundef %231, ptr noundef %232, ptr noundef %233, i32 noundef %234, ptr noundef %235)
  store ptr %236, ptr %7, align 8, !tbaa !3
  br label %237

237:                                              ; preds = %209, %208, %188, %177, %169, %161, %150, %139, %128, %117, %106, %95, %84, %61, %53, %39
  %238 = load ptr, ptr %7, align 8, !tbaa !3
  call void @llvm.lifetime.end.p0(i64 8, ptr %29) #13
  call void @llvm.lifetime.end.p0(i64 4, ptr %28) #13
  call void @llvm.lifetime.end.p0(i64 8, ptr %27) #13
  call void @llvm.lifetime.end.p0(i64 8, ptr %26) #13
  call void @llvm.lifetime.end.p0(i64 8, ptr %25) #13
  call void @llvm.lifetime.end.p0(i64 4, ptr %24) #13
  call void @llvm.lifetime.end.p0(i64 4, ptr %23) #13
  call void @llvm.lifetime.end.p0(i64 4, ptr %22) #13
  call void @llvm.lifetime.end.p0(i64 4, ptr %21) #13
  call void @llvm.lifetime.end.p0(i64 4, ptr %20) #13
  call void @llvm.lifetime.end.p0(i64 4, ptr %19) #13
  call void @llvm.lifetime.end.p0(i64 4, ptr %18) #13
  call void @llvm.lifetime.end.p0(i64 4, ptr %17) #13
  call void @llvm.lifetime.end.p0(i64 4, ptr %16) #13
  call void @llvm.lifetime.end.p0(i64 4, ptr %15) #13
  call void @llvm.lifetime.end.p0(i64 4, ptr %14) #13
  call void @llvm.lifetime.end.p0(i64 8, ptr %13) #13
  call void @llvm.lifetime.end.p0(i64 8, ptr %12) #13
  call void @llvm.lifetime.end.p0(i64 8, ptr %11) #13
  call void @llvm.lifetime.end.p0(i64 4, ptr %10) #13
  call void @llvm.lifetime.end.p0(i64 8, ptr %9) #13
  call void @llvm.lifetime.end.p0(i64 8, ptr %8) #13
  call void @llvm.lifetime.end.p0(i64 8, ptr %7) #13
  ret ptr %238
}