; Function Attrs: nounwind uwtable
define internal ptr @subprocess_fork_exec(ptr readnone captures(none) %0, ptr noundef readonly captures(none) %1, i64 noundef %2) #0 {
  %or.cond = icmp eq i64 %2, 22
  br i1 %or.cond, label %6, label %4

4:                                                ; preds = %3
  %5 = tail call i32 @_PyArg_CheckPositional(ptr noundef nonnull @.str.1, i64 noundef %2, i64 noundef 22, i64 noundef 22) #12
  %.not = icmp eq i32 %5, 0
  br i1 %.not, label %117, label %6

6:                                                ; preds = %3, %4
  %7 = load ptr, ptr %1, align 8, !tbaa !3
  %8 = getelementptr i8, ptr %1, i64 8
  %9 = load ptr, ptr %8, align 8, !tbaa !3
  %10 = getelementptr i8, ptr %1, i64 16
  %11 = load ptr, ptr %10, align 8, !tbaa !3
  %12 = tail call i32 @PyObject_IsTrue(ptr noundef %11) #12
  %13 = icmp slt i32 %12, 0
  br i1 %13, label %117, label %14

14:                                               ; preds = %6
  %15 = getelementptr i8, ptr %1, i64 24
  %16 = load ptr, ptr %15, align 8, !tbaa !3
  %17 = getelementptr i8, ptr %16, i64 8
  %.val = load ptr, ptr %17, align 8, !tbaa !8
  %18 = getelementptr i8, ptr %.val, i64 168
  %.val80 = load i64, ptr %18, align 8, !tbaa !11
  %19 = and i64 %.val80, 67108864
  %.not69 = icmp eq i64 %19, 0
  br i1 %.not69, label %20, label %21

20:                                               ; preds = %14
  tail call void @_PyArg_BadArgument(ptr noundef nonnull @.str.1, ptr noundef nonnull @.str.3, ptr noundef nonnull @.str.4, ptr noundef nonnull %16) #12
  br label %117

21:                                               ; preds = %14
  %22 = getelementptr i8, ptr %1, i64 32
  %23 = load ptr, ptr %22, align 8, !tbaa !3
  %24 = getelementptr i8, ptr %1, i64 40
  %25 = load ptr, ptr %24, align 8, !tbaa !3
  %26 = getelementptr i8, ptr %1, i64 48
  %27 = load ptr, ptr %26, align 8, !tbaa !3
  %28 = tail call i32 @PyLong_AsInt(ptr noundef %27) #12
  %29 = icmp eq i32 %28, -1
  br i1 %29, label %30, label %32

30:                                               ; preds = %21
  %31 = tail call ptr @PyErr_Occurred() #12
  %.not70 = icmp eq ptr %31, null
  br i1 %.not70, label %32, label %117

32:                                               ; preds = %30, %21
  %33 = getelementptr i8, ptr %1, i64 56
  %34 = load ptr, ptr %33, align 8, !tbaa !3
  %35 = tail call i32 @PyLong_AsInt(ptr noundef %34) #12
  %36 = icmp eq i32 %35, -1
  br i1 %36, label %37, label %39

37:                                               ; preds = %32
  %38 = tail call ptr @PyErr_Occurred() #12
  %.not71 = icmp eq ptr %38, null
  br i1 %.not71, label %39, label %117

39:                                               ; preds = %37, %32
  %40 = getelementptr i8, ptr %1, i64 64
  %41 = load ptr, ptr %40, align 8, !tbaa !3
  %42 = tail call i32 @PyLong_AsInt(ptr noundef %41) #12
  %43 = icmp eq i32 %42, -1
  br i1 %43, label %44, label %46

44:                                               ; preds = %39
  %45 = tail call ptr @PyErr_Occurred() #12
  %.not72 = icmp eq ptr %45, null
  br i1 %.not72, label %46, label %117

46:                                               ; preds = %44, %39
  %47 = getelementptr i8, ptr %1, i64 72
  %48 = load ptr, ptr %47, align 8, !tbaa !3
  %49 = tail call i32 @PyLong_AsInt(ptr noundef %48) #12
  %50 = icmp eq i32 %49, -1
  br i1 %50, label %51, label %53

51:                                               ; preds = %46
  %52 = tail call ptr @PyErr_Occurred() #12
  %.not73 = icmp eq ptr %52, null
  br i1 %.not73, label %53, label %117

53:                                               ; preds = %51, %46
  %54 = getelementptr i8, ptr %1, i64 80
  %55 = load ptr, ptr %54, align 8, !tbaa !3
  %56 = tail call i32 @PyLong_AsInt(ptr noundef %55) #12
  %57 = icmp eq i32 %56, -1
  br i1 %57, label %58, label %60

58:                                               ; preds = %53
  %59 = tail call ptr @PyErr_Occurred() #12
  %.not74 = icmp eq ptr %59, null
  br i1 %.not74, label %60, label %117

60:                                               ; preds = %58, %53
  %61 = getelementptr i8, ptr %1, i64 88
  %62 = load ptr, ptr %61, align 8, !tbaa !3
  %63 = tail call i32 @PyLong_AsInt(ptr noundef %62) #12
  %64 = icmp eq i32 %63, -1
  br i1 %64, label %65, label %67

65:                                               ; preds = %60
  %66 = tail call ptr @PyErr_Occurred() #12
  %.not75 = icmp eq ptr %66, null
  br i1 %.not75, label %67, label %117

67:                                               ; preds = %65, %60
  %68 = getelementptr i8, ptr %1, i64 96
  %69 = load ptr, ptr %68, align 8, !tbaa !3
  %70 = tail call i32 @PyLong_AsInt(ptr noundef %69) #12
  %71 = icmp eq i32 %70, -1
  br i1 %71, label %72, label %74

72:                                               ; preds = %67
  %73 = tail call ptr @PyErr_Occurred() #12
  %.not76 = icmp eq ptr %73, null
  br i1 %.not76, label %74, label %117

74:                                               ; preds = %72, %67
  %75 = getelementptr i8, ptr %1, i64 104
  %76 = load ptr, ptr %75, align 8, !tbaa !3
  %77 = tail call i32 @PyLong_AsInt(ptr noundef %76) #12
  %78 = icmp eq i32 %77, -1
  br i1 %78, label %79, label %81

79:                                               ; preds = %74
  %80 = tail call ptr @PyErr_Occurred() #12
  %.not77 = icmp eq ptr %80, null
  br i1 %.not77, label %81, label %117

81:                                               ; preds = %79, %74
  %82 = getelementptr i8, ptr %1, i64 112
  %83 = load ptr, ptr %82, align 8, !tbaa !3
  %84 = tail call i32 @PyObject_IsTrue(ptr noundef %83) #12
  %85 = icmp slt i32 %84, 0
  br i1 %85, label %117, label %86

86:                                               ; preds = %81
  %87 = getelementptr i8, ptr %1, i64 120
  %88 = load ptr, ptr %87, align 8, !tbaa !3
  %89 = tail call i32 @PyObject_IsTrue(ptr noundef %88) #12
  %90 = icmp slt i32 %89, 0
  br i1 %90, label %117, label %91

91:                                               ; preds = %86
  %92 = getelementptr i8, ptr %1, i64 128
  %93 = load ptr, ptr %92, align 8, !tbaa !3
  %94 = tail call i32 @PyLong_AsInt(ptr noundef %93) #12
  %95 = icmp eq i32 %94, -1
  br i1 %95, label %96, label %98

96:                                               ; preds = %91
  %97 = tail call ptr @PyErr_Occurred() #12
  %.not78 = icmp eq ptr %97, null
  br i1 %.not78, label %98, label %117

98:                                               ; preds = %96, %91
  %99 = getelementptr i8, ptr %1, i64 136
  %100 = load ptr, ptr %99, align 8, !tbaa !3
  %101 = getelementptr i8, ptr %1, i64 144
  %102 = load ptr, ptr %101, align 8, !tbaa !3
  %103 = getelementptr i8, ptr %1, i64 152
  %104 = load ptr, ptr %103, align 8, !tbaa !3
  %105 = getelementptr i8, ptr %1, i64 160
  %106 = load ptr, ptr %105, align 8, !tbaa !3
  %107 = tail call i32 @PyLong_AsInt(ptr noundef %106) #12
  %108 = icmp eq i32 %107, -1
  br i1 %108, label %112, label %.split

.split:                                           ; preds = %98
  %109 = getelementptr i8, ptr %1, i64 168
  %110 = load ptr, ptr %109, align 8, !tbaa !3
  %111 = tail call fastcc ptr @subprocess_fork_exec_impl(ptr noundef %7, ptr noundef %9, i32 noundef %12, ptr noundef nonnull %16, ptr noundef %23, ptr noundef %25, i32 noundef %28, i32 noundef %35, i32 noundef %42, i32 noundef %49, i32 noundef %56, i32 noundef %63, i32 noundef %70, i32 noundef %77, i32 noundef %84, i32 noundef %89, i32 noundef %94, ptr noundef %100, ptr noundef %102, ptr noundef %104, i32 noundef %107, ptr noundef %110)
  br label %117

112:                                              ; preds = %98
  %113 = tail call ptr @PyErr_Occurred() #12
  %.not79 = icmp eq ptr %113, null
  br i1 %.not79, label %.split64, label %117

.split64:                                         ; preds = %112
  %114 = getelementptr i8, ptr %1, i64 168
  %115 = load ptr, ptr %114, align 8, !tbaa !3
  %116 = tail call fastcc ptr @subprocess_fork_exec_impl(ptr noundef %7, ptr noundef %9, i32 noundef %12, ptr noundef nonnull %16, ptr noundef %23, ptr noundef %25, i32 noundef %28, i32 noundef %35, i32 noundef %42, i32 noundef %49, i32 noundef %56, i32 noundef %63, i32 noundef %70, i32 noundef %77, i32 noundef %84, i32 noundef %89, i32 noundef %94, ptr noundef %100, ptr noundef %102, ptr noundef %104, i32 noundef -1, ptr noundef %115)
  br label %117

117:                                              ; preds = %.split, %.split64, %112, %96, %86, %81, %79, %72, %65, %58, %51, %44, %37, %30, %6, %4, %20
  %.0 = phi ptr [ null, %6 ], [ null, %30 ], [ null, %37 ], [ null, %44 ], [ null, %51 ], [ null, %58 ], [ null, %65 ], [ null, %72 ], [ null, %79 ], [ null, %81 ], [ null, %86 ], [ null, %96 ], [ null, %112 ], [ null, %20 ], [ null, %4 ], [ %111, %.split ], [ %116, %.split64 ]
  ret ptr %.0
}